target datalayout = "e-m:e-p270:32:32-p271:32:32-p272:64:64-i64:64-i128:128-f80:128-n8:16:32:64-S128"
target triple = "x86_64-pc-linux-gnu"

%struct.WaveFile = type { %struct.WaveChunk, %struct.WaveFormat, %struct.WaveFact, i64, ptr, i32, i32, i32 }
%struct.WaveChunk = type { i32, i32, i64, ptr, i64 }
%struct.WaveFormat = type { i16, i16, i16, i32, i32, i16, i16, i16, i16, i32, i32, [16 x i8] }
%struct.WaveFact = type { i32, i32 }

@.str.55 = private unnamed_addr constant [62 x i8] c"Invalid number of sample frames in WAVE fact chunk (too many)\00", align 1
@.str.72 = private unnamed_addr constant [18 x i8] c"WAVE file too big\00", align 1

; Function Attrs: nounwind uwtable
define internal i32 @SafeMult(ptr noundef %0, i64 noundef %1) #0 {
  %3 = alloca i32, align 4
  %4 = alloca ptr, align 8
  %5 = alloca i64, align 8
  store ptr %0, ptr %4, align 8
  store i64 %1, ptr %5, align 8
  %6 = load ptr, ptr %4, align 8
  %7 = load i64, ptr %6, align 8
  %8 = icmp ugt i64 %7, 0
  br i1 %8, label %9, label %16

9:                                                ; preds = %2
  %10 = load ptr, ptr %4, align 8
  %11 = load i64, ptr %10, align 8
  %12 = udiv i64 -1, %11
  %13 = load i64, ptr %5, align 8
  %14 = icmp ule i64 %12, %13
  br i1 %14, label %15, label %16

15:                                               ; preds = %9
  store i32 -1, ptr %3, align 4
  br label %21

16:                                               ; preds = %9, %2
  %17 = load i64, ptr %5, align 8
  %18 = load ptr, ptr %4, align 8
  %19 = load i64, ptr %18, align 8
  %20 = mul i64 %19, %17
  store i64 %20, ptr %18, align 8
  store i32 0, ptr %3, align 4
  br label %21

21:                                               ; preds = %16, %15
  %22 = load i32, ptr %3, align 4
  ret i32 %22
}

; Function Attrs: nounwind uwtable
define internal zeroext i1 @PCM_ConvertSint24ToSint32(ptr noundef %0, ptr noundef %1, ptr noundef %2) #0 {
  %4 = alloca i1, align 1
  %5 = alloca ptr, align 8
  %6 = alloca ptr, align 8
  %7 = alloca ptr, align 8
  %8 = alloca ptr, align 8
  %9 = alloca ptr, align 8
  %10 = alloca i64, align 8
  %11 = alloca i64, align 8
  %12 = alloca i64, align 8
  %13 = alloca ptr, align 8
  %14 = alloca i32, align 4
  %15 = alloca i64, align 8
  %16 = alloca [4 x i8], align 1
  store ptr %0, ptr %5, align 8
  store ptr %1, ptr %6, align 8
  store ptr %2, ptr %7, align 8
  call void @llvm.lifetime.start.p0(i64 8, ptr %8) #7
  %17 = load ptr, ptr %5, align 8
  %18 = getelementptr inbounds nuw %struct.WaveFile, ptr %17, i32 0, i32 1
  store ptr %18, ptr %8, align 8
  call void @llvm.lifetime.start.p0(i64 8, ptr %9) #7
  %19 = load ptr, ptr %5, align 8
  %20 = getelementptr inbounds nuw %struct.WaveFile, ptr %19, i32 0, i32 0
  store ptr %20, ptr %9, align 8
  call void @llvm.lifetime.start.p0(i64 8, ptr %10) #7
  call void @llvm.lifetime.start.p0(i64 8, ptr %11) #7
  call void @llvm.lifetime.start.p0(i64 8, ptr %12) #7
  call void @llvm.lifetime.start.p0(i64 8, ptr %13) #7
  %21 = load ptr, ptr %5, align 8
  %22 = getelementptr inbounds nuw %struct.WaveFile, ptr %21, i32 0, i32 3
  %23 = load i64, ptr %22, align 8
  store i64 %23, ptr %12, align 8
  %24 = load ptr, ptr %8, align 8
  %25 = getelementptr inbounds nuw %struct.WaveFormat, ptr %24, i32 0, i32 2
  %26 = load i16, ptr %25, align 4
  %27 = zext i16 %26 to i64
  %28 = call i32 @SafeMult(ptr noundef %12, i64 noundef %27)
  %29 = icmp ne i32 %28, 0
  br i1 %29, label %30, label %32

30:                                               ; preds = %3
  %31 = call zeroext i1 (ptr, ...) @SDL_SetError_REAL(ptr noundef @.str.72)
  store i1 %31, ptr %4, align 1
  store i32 1, ptr %14, align 4
  br label %134

32:                                               ; preds = %3
  %33 = load i64, ptr %12, align 8
  store i64 %33, ptr %11, align 8
  %34 = call i32 @SafeMult(ptr noundef %11, i64 noundef 4)
  %35 = icmp ne i32 %34, 0
  br i1 %35, label %36, label %38

36:                                               ; preds = %32
  %37 = call zeroext i1 (ptr, ...) @SDL_SetError_REAL(ptr noundef @.str.72)
  store i1 %37, ptr %4, align 1
  store i32 1, ptr %14, align 4
  br label %134

38:                                               ; preds = %32
  %39 = load i64, ptr %11, align 8
  %40 = icmp ugt i64 %39, 4294967295
  br i1 %40, label %46, label %41

41:                                               ; preds = %38
  %42 = load ptr, ptr %5, align 8
  %43 = getelementptr inbounds nuw %struct.WaveFile, ptr %42, i32 0, i32 3
  %44 = load i64, ptr %43, align 8
  %45 = icmp ugt i64 %44, -1
  br i1 %45, label %46, label %48

46:                                               ; preds = %41, %38
  %47 = call zeroext i1 (ptr, ...) @SDL_SetError_REAL(ptr noundef @.str.72)
  store i1 %47, ptr %4, align 1
  store i32 1, ptr %14, align 4
  br label %134

48:                                               ; preds = %41
  br label %49

49:                                               ; preds = %48
  %50 = load ptr, ptr %9, align 8
  %51 = getelementptr inbounds nuw %struct.WaveChunk, ptr %50, i32 0, i32 3
  %52 = load ptr, ptr %51, align 8
  %53 = load i64, ptr %11, align 8
  %54 = icmp ne i64 %53, 0
  br i1 %54, label %55, label %57

55:                                               ; preds = %49
  %56 = load i64, ptr %11, align 8
  br label %58

57:                                               ; preds = %49
  br label %58

58:                                               ; preds = %57, %55
  %59 = phi i64 [ %56, %55 ], [ 1, %57 ]
  %60 = call ptr @SDL_realloc_REAL(ptr noundef %52, i64 noundef %59) #8
  store ptr %60, ptr %13, align 8
  %61 = load ptr, ptr %13, align 8
  %62 = icmp ne ptr %61, null
  br i1 %62, label %64, label %63

63:                                               ; preds = %58
  store i1 false, ptr %4, align 1
  store i32 1, ptr %14, align 4
  br label %134

64:                                               ; preds = %58
  %65 = load ptr, ptr %9, align 8
  %66 = getelementptr inbounds nuw %struct.WaveChunk, ptr %65, i32 0, i32 3
  store ptr null, ptr %66, align 8
  %67 = load ptr, ptr %9, align 8
  %68 = getelementptr inbounds nuw %struct.WaveChunk, ptr %67, i32 0, i32 4
  store i64 0, ptr %68, align 8
  %69 = load ptr, ptr %13, align 8
  %70 = load ptr, ptr %6, align 8
  store ptr %69, ptr %70, align 8
  %71 = load i64, ptr %11, align 8
  %72 = trunc i64 %71 to i32
  %73 = load ptr, ptr %7, align 8
  store i32 %72, ptr %73, align 4
  %74 = load i64, ptr %12, align 8
  store i64 %74, ptr %10, align 8
  br label %75

75:                                               ; preds = %130, %64
  %76 = load i64, ptr %10, align 8
  %77 = icmp ugt i64 %76, 0
  br i1 %77, label %78, label %133

78:                                               ; preds = %75
  call void @llvm.lifetime.start.p0(i64 8, ptr %15) #7
  %79 = load i64, ptr %10, align 8
  %80 = sub i64 %79, 1
  store i64 %80, ptr %15, align 8
  call void @llvm.lifetime.start.p0(i64 4, ptr %16) #7
  %81 = getelementptr inbounds [4 x i8], ptr %16, i64 0, i64 0
  store i8 0, ptr %81, align 1
  %82 = load ptr, ptr %13, align 8
  %83 = load i64, ptr %15, align 8
  %84 = mul i64 %83, 3
  %85 = getelementptr inbounds nuw i8, ptr %82, i64 %84
  %86 = load i8, ptr %85, align 1
  %87 = getelementptr inbounds [4 x i8], ptr %16, i64 0, i64 1
  store i8 %86, ptr %87, align 1
  %88 = load ptr, ptr %13, align 8
  %89 = load i64, ptr %15, align 8
  %90 = mul i64 %89, 3
  %91 = add i64 %90, 1
  %92 = getelementptr inbounds nuw i8, ptr %88, i64 %91
  %93 = load i8, ptr %92, align 1
  %94 = getelementptr inbounds [4 x i8], ptr %16, i64 0, i64 2
  store i8 %93, ptr %94, align 1
  %95 = load ptr, ptr %13, align 8
  %96 = load i64, ptr %15, align 8
  %97 = mul i64 %96, 3
  %98 = add i64 %97, 2
  %99 = getelementptr inbounds nuw i8, ptr %95, i64 %98
  %100 = load i8, ptr %99, align 1
  %101 = getelementptr inbounds [4 x i8], ptr %16, i64 0, i64 3
  store i8 %100, ptr %101, align 1
  %102 = getelementptr inbounds [4 x i8], ptr %16, i64 0, i64 0
  %103 = load i8, ptr %102, align 1
  %104 = load ptr, ptr %13, align 8
  %105 = load i64, ptr %15, align 8
  %106 = mul i64 %105, 4
  %107 = add i64 %106, 0
  %108 = getelementptr inbounds nuw i8, ptr %104, i64 %107
  store i8 %103, ptr %108, align 1
  %109 = getelementptr inbounds [4 x i8], ptr %16, i64 0, i64 1
  %110 = load i8, ptr %109, align 1
  %111 = load ptr, ptr %13, align 8
  %112 = load i64, ptr %15, align 8
  %113 = mul i64 %112, 4
  %114 = add i64 %113, 1
  %115 = getelementptr inbounds nuw i8, ptr %111, i64 %114
  store i8 %110, ptr %115, align 1
  %116 = getelementptr inbounds [4 x i8], ptr %16, i64 0, i64 2
  %117 = load i8, ptr %116, align 1
  %118 = load ptr, ptr %13, align 8
  %119 = load i64, ptr %15, align 8
  %120 = mul i64 %119, 4
  %121 = add i64 %120, 2
  %122 = getelementptr inbounds nuw i8, ptr %118, i64 %121
  store i8 %117, ptr %122, align 1
  %123 = getelementptr inbounds [4 x i8], ptr %16, i64 0, i64 3
  %124 = load i8, ptr %123, align 1
  %125 = load ptr, ptr %13, align 8
  %126 = load i64, ptr %15, align 8
  %127 = mul i64 %126, 4
  %128 = add i64 %127, 3
  %129 = getelementptr inbounds nuw i8, ptr %125, i64 %128
  store i8 %124, ptr %129, align 1
  call void @llvm.lifetime.end.p0(i64 4, ptr %16) #7
  call void @llvm.lifetime.end.p0(i64 8, ptr %15) #7
  br label %130

130:                                              ; preds = %78
  %131 = load i64, ptr %10, align 8
  %132 = add i64 %131, -1
  store i64 %132, ptr %10, align 8
  br label %75, !llvm.loop !13

133:                                              ; preds = %75
  store i1 true, ptr %4, align 1
  store i32 1, ptr %14, align 4
  br label %134

134:                                              ; preds = %133, %63, %46, %36, %30
  call void @llvm.lifetime.end.p0(i64 8, ptr %13) #7
  call void @llvm.lifetime.end.p0(i64 8, ptr %12) #7
  call void @llvm.lifetime.end.p0(i64 8, ptr %11) #7
  call void @llvm.lifetime.end.p0(i64 8, ptr %10) #7
  call void @llvm.lifetime.end.p0(i64 8, ptr %9) #7
  call void @llvm.lifetime.end.p0(i64 8, ptr %8) #7
  %135 = load i1, ptr %4, align 1
  ret i1 %135
}

; Function Attrs: nounwind uwtable
define internal i64 @WaveAdjustToFactValue(ptr noundef %0, i64 noundef %1) #0 {
  %3 = alloca i64, align 8
  %4 = alloca ptr, align 8
  %5 = alloca i64, align 8
  store ptr %0, ptr %4, align 8
  store i64 %1, ptr %5, align 8
  %6 = load ptr, ptr %4, align 8
  %7 = getelementptr inbounds nuw %struct.WaveFile, ptr %6, i32 0, i32 2
  %8 = getelementptr inbounds nuw %struct.WaveFact, ptr %7, i32 0, i32 0
  %9 = load i32, ptr %8, align 8
  %10 = icmp eq i32 %9, 2
  br i1 %10, label %11, label %42

11:                                               ; preds = %2
  %12 = load ptr, ptr %4, align 8
  %13 = getelementptr inbounds nuw %struct.WaveFile, ptr %12, i32 0, i32 7
  %14 = load i32, ptr %13, align 8
  %15 = icmp eq i32 %14, 2
  br i1 %15, label %16, label %26

16:                                               ; preds = %11
  %17 = load i64, ptr %5, align 8
  %18 = load ptr, ptr %4, align 8
  %19 = getelementptr inbounds nuw %struct.WaveFile, ptr %18, i32 0, i32 2
  %20 = getelementptr inbounds nuw %struct.WaveFact, ptr %19, i32 0, i32 1
  %21 = load i32, ptr %20, align 4
  %22 = zext i32 %21 to i64
  %23 = icmp slt i64 %17, %22
  br i1 %23, label %24, label %26

24:                                               ; preds = %16
  %25 = call zeroext i1 (ptr, ...) @SDL_SetError_REAL(ptr noundef @.str.55)
  store i64 -1, ptr %3, align 8
  br label %44

26:                                               ; preds = %16, %11
  %27 = load i64, ptr %5, align 8
  %28 = load ptr, ptr %4, align 8
  %29 = getelementptr inbounds nuw %struct.WaveFile, ptr %28, i32 0, i32 2
  %30 = getelementptr inbounds nuw %struct.WaveFact, ptr %29, i32 0, i32 1
  %31 = load i32, ptr %30, align 4
  %32 = zext i32 %31 to i64
  %33 = icmp sgt i64 %27, %32
  br i1 %33, label %34, label %40

34:                                               ; preds = %26
  %35 = load ptr, ptr %4, align 8
  %36 = getelementptr inbounds nuw %struct.WaveFile, ptr %35, i32 0, i32 2
  %37 = getelementptr inbounds nuw %struct.WaveFact, ptr %36, i32 0, i32 1
  %38 = load i32, ptr %37, align 4
  %39 = zext i32 %38 to i64
  store i64 %39, ptr %3, align 8
  br label %44

40:                                               ; preds = %26
  br label %41

41:                                               ; preds = %40
  br label %42

42:                                               ; preds = %41, %2
  %43 = load i64, ptr %5, align 8
  store i64 %43, ptr %3, align 8
  br label %44

44:                                               ; preds = %42, %34, %24
  %45 = load i64, ptr %3, align 8
  ret i64 %45
}

; Function Attrs: nounwind uwtable
define internal zeroext i1 @PCM_Decode(ptr noundef %0, ptr noundef %1, ptr noundef %2) #0 {
  %4 = alloca i1, align 1
  %5 = alloca ptr, align 8
  %6 = alloca ptr, align 8
  %7 = alloca ptr, align 8
  %8 = alloca ptr, align 8
  %9 = alloca ptr, align 8
  %10 = alloca i64, align 8
  %11 = alloca i32, align 4
  store ptr %0, ptr %5, align 8
  store ptr %1, ptr %6, align 8
  store ptr %2, ptr %7, align 8
  call void @llvm.lifetime.start.p0(i64 8, ptr %8) #7
  %12 = load ptr, ptr %5, align 8
  %13 = getelementptr inbounds nuw %struct.WaveFile, ptr %12, i32 0, i32 1
  store ptr %13, ptr %8, align 8
  call void @llvm.lifetime.start.p0(i64 8, ptr %9) #7
  %14 = load ptr, ptr %5, align 8
  %15 = getelementptr inbounds nuw %struct.WaveFile, ptr %14, i32 0, i32 0
  store ptr %15, ptr %9, align 8
  call void @llvm.lifetime.start.p0(i64 8, ptr %10) #7
  %16 = load ptr, ptr %9, align 8
  %17 = getelementptr inbounds nuw %struct.WaveChunk, ptr %16, i32 0, i32 1
  %18 = load i32, ptr %17, align 4
  %19 = zext i32 %18 to i64
  %20 = load ptr, ptr %9, align 8
  %21 = getelementptr inbounds nuw %struct.WaveChunk, ptr %20, i32 0, i32 4
  %22 = load i64, ptr %21, align 8
  %23 = icmp ne i64 %19, %22
  br i1 %23, label %24, label %43

24:                                               ; preds = %3
  %25 = load ptr, ptr %5, align 8
  %26 = load ptr, ptr %9, align 8
  %27 = getelementptr inbounds nuw %struct.WaveChunk, ptr %26, i32 0, i32 4
  %28 = load i64, ptr %27, align 8
  %29 = load ptr, ptr %8, align 8
  %30 = getelementptr inbounds nuw %struct.WaveFormat, ptr %29, i32 0, i32 5
  %31 = load i16, ptr %30, align 4
  %32 = zext i16 %31 to i64
  %33 = udiv i64 %28, %32
  %34 = call i64 @WaveAdjustToFactValue(ptr noundef %25, i64 noundef %33)
  %35 = load ptr, ptr %5, align 8
  %36 = getelementptr inbounds nuw %struct.WaveFile, ptr %35, i32 0, i32 3
  store i64 %34, ptr %36, align 8
  %37 = load ptr, ptr %5, align 8
  %38 = getelementptr inbounds nuw %struct.WaveFile, ptr %37, i32 0, i32 3
  %39 = load i64, ptr %38, align 8
  %40 = icmp slt i64 %39, 0
  br i1 %40, label %41, label %42

41:                                               ; preds = %24
  store i1 false, ptr %4, align 1
  store i32 1, ptr %11, align 4
  br label %103

42:                                               ; preds = %24
  br label %43

43:                                               ; preds = %42, %3
  %44 = load ptr, ptr %5, align 8
  %45 = getelementptr inbounds nuw %struct.WaveFile, ptr %44, i32 0, i32 3
  %46 = load i64, ptr %45, align 8
  %47 = icmp eq i64 %46, 0
  br i1 %47, label %48, label %51

48:                                               ; preds = %43
  %49 = load ptr, ptr %6, align 8
  store ptr null, ptr %49, align 8
  %50 = load ptr, ptr %7, align 8
  store i32 0, ptr %50, align 4
  store i1 true, ptr %4, align 1
  store i32 1, ptr %11, align 4
  br label %103

51:                                               ; preds = %43
  %52 = load ptr, ptr %8, align 8
  %53 = getelementptr inbounds nuw %struct.WaveFormat, ptr %52, i32 0, i32 1
  %54 = load i16, ptr %53, align 2
  %55 = zext i16 %54 to i32
  %56 = icmp eq i32 %55, 1
  br i1 %56, label %57, label %68

57:                                               ; preds = %51
  %58 = load ptr, ptr %8, align 8
  %59 = getelementptr inbounds nuw %struct.WaveFormat, ptr %58, i32 0, i32 6
  %60 = load i16, ptr %59, align 2
  %61 = zext i16 %60 to i32
  %62 = icmp eq i32 %61, 24
  br i1 %62, label %63, label %68

63:                                               ; preds = %57
  %64 = load ptr, ptr %5, align 8
  %65 = load ptr, ptr %6, align 8
  %66 = load ptr, ptr %7, align 8
  %67 = call zeroext i1 @PCM_ConvertSint24ToSint32(ptr noundef %64, ptr noundef %65, ptr noundef %66)
  store i1 %67, ptr %4, align 1
  store i32 1, ptr %11, align 4
  br label %103

68:                                               ; preds = %57, %51
  %69 = load ptr, ptr %5, align 8
  %70 = getelementptr inbounds nuw %struct.WaveFile, ptr %69, i32 0, i32 3
  %71 = load i64, ptr %70, align 8
  store i64 %71, ptr %10, align 8
  %72 = load ptr, ptr %8, align 8
  %73 = getelementptr inbounds nuw %struct.WaveFormat, ptr %72, i32 0, i32 5
  %74 = load i16, ptr %73, align 4
  %75 = zext i16 %74 to i64
  %76 = call i32 @SafeMult(ptr noundef %10, i64 noundef %75)
  %77 = icmp ne i32 %76, 0
  br i1 %77, label %78, label %80

78:                                               ; preds = %68
  %79 = call zeroext i1 (ptr, ...) @SDL_SetError_REAL(ptr noundef @.str.72)
  store i1 %79, ptr %4, align 1
  store i32 1, ptr %11, align 4
  br label %103

80:                                               ; preds = %68
  %81 = load i64, ptr %10, align 8
  %82 = icmp ugt i64 %81, 4294967295
  br i1 %82, label %88, label %83

83:                                               ; preds = %80
  %84 = load ptr, ptr %5, align 8
  %85 = getelementptr inbounds nuw %struct.WaveFile, ptr %84, i32 0, i32 3
  %86 = load i64, ptr %85, align 8
  %87 = icmp ugt i64 %86, -1
  br i1 %87, label %88, label %90

88:                                               ; preds = %83, %80
  %89 = call zeroext i1 (ptr, ...) @SDL_SetError_REAL(ptr noundef @.str.72)
  store i1 %89, ptr %4, align 1
  store i32 1, ptr %11, align 4
  br label %103

90:                                               ; preds = %83
  br label %91

91:                                               ; preds = %90
  %92 = load ptr, ptr %9, align 8
  %93 = getelementptr inbounds nuw %struct.WaveChunk, ptr %92, i32 0, i32 3
  %94 = load ptr, ptr %93, align 8
  %95 = load ptr, ptr %6, align 8
  store ptr %94, ptr %95, align 8
  %96 = load i64, ptr %10, align 8
  %97 = trunc i64 %96 to i32
  %98 = load ptr, ptr %7, align 8
  store i32 %97, ptr %98, align 4
  %99 = load ptr, ptr %9, align 8
  %100 = getelementptr inbounds nuw %struct.WaveChunk, ptr %99, i32 0, i32 3
  store ptr null, ptr %100, align 8
  %101 = load ptr, ptr %9, align 8
  %102 = getelementptr inbounds nuw %struct.WaveChunk, ptr %101, i32 0, i32 4
  store i64 0, ptr %102, align 8
  store i1 true, ptr %4, align 1
  store i32 1, ptr %11, align 4
  br label %103

103:                                              ; preds = %91, %88, %78, %63, %48, %41
  call void @llvm.lifetime.end.p0(i64 8, ptr %10) #7
  call void @llvm.lifetime.end.p0(i64 8, ptr %9) #7
  call void @llvm.lifetime.end.p0(i64 8, ptr %8) #7
  %104 = load i1, ptr %4, align 1
  ret i1 %104
}