; Function Attrs: nounwind uwtable
define internal fastcc zeroext i1 @PCM_Decode(ptr noundef nonnull captures(none) %0, ptr noundef nonnull writeonly captures(none) %1, ptr noundef nonnull writeonly captures(none) %2) unnamed_addr #0 {
  %4 = getelementptr inbounds nuw i8, ptr %0, i64 4
  %5 = load i32, ptr %4, align 4
  %6 = zext i32 %5 to i64
  %7 = getelementptr inbounds nuw i8, ptr %0, i64 24
  %8 = load i64, ptr %7, align 8
  %.not = icmp eq i64 %8, %6
  br i1 %.not, label %._crit_edge, label %9

._crit_edge:                                      ; preds = %3
  %.phi.trans.insert = getelementptr inbounds nuw i8, ptr %0, i64 88
  %.pre = load i64, ptr %.phi.trans.insert, align 8
  br label %31

9:                                                ; preds = %3
  %10 = getelementptr inbounds nuw i8, ptr %0, i64 48
  %11 = load i16, ptr %10, align 4
  %12 = zext i16 %11 to i64
  %13 = udiv i64 %8, %12
  %14 = getelementptr inbounds nuw i8, ptr %0, i64 80
  %15 = load i32, ptr %14, align 8
  %16 = icmp eq i32 %15, 2
  br i1 %16, label %17, label %WaveAdjustToFactValue.exit

17:                                               ; preds = %9
  %18 = getelementptr inbounds nuw i8, ptr %0, i64 112
  %19 = load i32, ptr %18, align 8
  %20 = icmp eq i32 %19, 2
  %21 = getelementptr inbounds nuw i8, ptr %0, i64 84
  %22 = load i32, ptr %21, align 4
  %23 = zext i32 %22 to i64
  %24 = icmp slt i64 %13, %23
  %or.cond.i = select i1 %20, i1 %24, i1 false
  br i1 %or.cond.i, label %WaveAdjustToFactValue.exit.thread, label %._crit_edge.i

WaveAdjustToFactValue.exit.thread:                ; preds = %17
  %25 = tail call zeroext i1 (ptr, ...) @SDL_SetError_REAL(ptr noundef nonnull @.str.55) #8
  %26 = getelementptr inbounds nuw i8, ptr %0, i64 88
  store i64 -1, ptr %26, align 8
  br label %PCM_ConvertSint24ToSint32.exit

._crit_edge.i:                                    ; preds = %17
  %27 = icmp sgt i64 %13, %23
  br i1 %27, label %WaveAdjustToFactValue.exit.thread35, label %WaveAdjustToFactValue.exit

WaveAdjustToFactValue.exit.thread35:              ; preds = %._crit_edge.i
  %28 = getelementptr inbounds nuw i8, ptr %0, i64 88
  store i64 %23, ptr %28, align 8
  br label %31

WaveAdjustToFactValue.exit:                       ; preds = %9, %._crit_edge.i
  %29 = getelementptr inbounds nuw i8, ptr %0, i64 88
  store i64 %13, ptr %29, align 8
  %30 = icmp slt i64 %13, 0
  br i1 %30, label %PCM_ConvertSint24ToSint32.exit, label %31

31:                                               ; preds = %._crit_edge, %WaveAdjustToFactValue.exit.thread35, %WaveAdjustToFactValue.exit
  %32 = phi i64 [ %.pre, %._crit_edge ], [ %23, %WaveAdjustToFactValue.exit.thread35 ], [ %13, %WaveAdjustToFactValue.exit ]
  %33 = icmp eq i64 %32, 0
  br i1 %33, label %34, label %35

34:                                               ; preds = %31
  store ptr null, ptr %1, align 8
  store i32 0, ptr %2, align 4
  br label %PCM_ConvertSint24ToSint32.exit

35:                                               ; preds = %31
  %36 = getelementptr inbounds nuw i8, ptr %0, i64 34
  %37 = load i16, ptr %36, align 2
  %38 = icmp eq i16 %37, 1
  br i1 %38, label %39, label %73

39:                                               ; preds = %35
  %40 = getelementptr inbounds nuw i8, ptr %0, i64 50
  %41 = load i16, ptr %40, align 2
  %42 = icmp eq i16 %41, 24
  br i1 %42, label %43, label %73

43:                                               ; preds = %39
  %44 = getelementptr inbounds nuw i8, ptr %0, i64 36
  %45 = load i16, ptr %44, align 4
  %46 = zext i16 %45 to i64
  %47 = udiv i64 -1, %32
  %.not6.i.i = icmp ugt i64 %47, %46
  br i1 %.not6.i.i, label %48, label %.loopexit.sink.split.i

48:                                               ; preds = %43
  %49 = mul i64 %32, %46
  %.not.i36.i = icmp eq i64 %49, 0
  br i1 %.not.i36.i, label %.thread.i, label %50

50:                                               ; preds = %48
  %51 = shl nuw nsw i64 %49, 2
  %or.cond.i29 = icmp ugt i64 %49, 1073741823
  br i1 %or.cond.i29, label %.loopexit.sink.split.i, label %.thread.i

.thread.i:                                        ; preds = %50, %48
  %52 = phi i64 [ 0, %48 ], [ %51, %50 ]
  %53 = getelementptr inbounds nuw i8, ptr %0, i64 16
  %54 = load ptr, ptr %53, align 8
  %55 = tail call i64 @llvm.umax.i64(i64 %52, i64 1)
  %56 = tail call ptr @SDL_realloc_REAL(ptr noundef %54, i64 noundef %55) #9
  %.not34.i = icmp eq ptr %56, null
  br i1 %.not34.i, label %PCM_ConvertSint24ToSint32.exit, label %57

57:                                               ; preds = %.thread.i
  tail call void @llvm.memset.p0.i64(ptr noundef nonnull align 8 dereferenceable(16) %53, i8 0, i64 16, i1 false)
  store ptr %56, ptr %1, align 8
  %58 = trunc nuw i64 %52 to i32
  store i32 %58, ptr %2, align 4
  br i1 %.not.i36.i, label %PCM_ConvertSint24ToSint32.exit, label %.lr.ph.i

.lr.ph.i:                                         ; preds = %57, %.lr.ph.i
  %.02956.i = phi i64 [ %59, %.lr.ph.i ], [ %49, %57 ]
  %59 = add i64 %.02956.i, -1
  %60 = mul i64 %59, 3
  %61 = getelementptr inbounds nuw i8, ptr %56, i64 %60
  %62 = load i8, ptr %61, align 1
  %63 = getelementptr i8, ptr %61, i64 1
  %64 = load i8, ptr %63, align 1
  %65 = getelementptr i8, ptr %61, i64 2
  %66 = load i8, ptr %65, align 1
  %67 = shl i64 %59, 2
  %68 = getelementptr inbounds nuw i8, ptr %56, i64 %67
  store i8 0, ptr %68, align 1
  %69 = getelementptr inbounds nuw i8, ptr %68, i64 1
  store i8 %62, ptr %69, align 1
  %70 = getelementptr inbounds nuw i8, ptr %68, i64 2
  store i8 %64, ptr %70, align 1
  %71 = getelementptr inbounds nuw i8, ptr %68, i64 3
  store i8 %66, ptr %71, align 1
  %.not35.i = icmp eq i64 %59, 0
  br i1 %.not35.i, label %PCM_ConvertSint24ToSint32.exit, label %.lr.ph.i, !llvm.loop !5

.loopexit.sink.split.i:                           ; preds = %50, %43
  %72 = tail call zeroext i1 (ptr, ...) @SDL_SetError_REAL(ptr noundef nonnull @.str.72) #8
  br label %PCM_ConvertSint24ToSint32.exit

73:                                               ; preds = %35, %39
  %74 = getelementptr inbounds nuw i8, ptr %0, i64 48
  %75 = load i16, ptr %74, align 4
  %76 = zext i16 %75 to i64
  %77 = udiv i64 -1, %32
  %.not6.i = icmp ugt i64 %77, %76
  br i1 %.not6.i, label %79, label %SafeMult.exit

SafeMult.exit:                                    ; preds = %73
  %78 = tail call zeroext i1 (ptr, ...) @SDL_SetError_REAL(ptr noundef nonnull @.str.72) #8
  br label %PCM_ConvertSint24ToSint32.exit

79:                                               ; preds = %73
  %80 = mul i64 %32, %76
  %81 = icmp ugt i64 %80, 4294967295
  br i1 %81, label %82, label %84

82:                                               ; preds = %79
  %83 = tail call zeroext i1 (ptr, ...) @SDL_SetError_REAL(ptr noundef nonnull @.str.72) #8
  br label %PCM_ConvertSint24ToSint32.exit

84:                                               ; preds = %79
  %85 = getelementptr inbounds nuw i8, ptr %0, i64 16
  %86 = load ptr, ptr %85, align 8
  store ptr %86, ptr %1, align 8
  %87 = trunc nuw i64 %80 to i32
  store i32 %87, ptr %2, align 4
  tail call void @llvm.memset.p0.i64(ptr noundef nonnull align 8 dereferenceable(16) %85, i8 0, i64 16, i1 false)
  br label %PCM_ConvertSint24ToSint32.exit

PCM_ConvertSint24ToSint32.exit:                   ; preds = %.lr.ph.i, %.loopexit.sink.split.i, %57, %.thread.i, %WaveAdjustToFactValue.exit.thread, %WaveAdjustToFactValue.exit, %84, %82, %SafeMult.exit, %34
  %.0 = phi i1 [ true, %34 ], [ %78, %SafeMult.exit ], [ %83, %82 ], [ true, %84 ], [ false, %WaveAdjustToFactValue.exit ], [ false, %WaveAdjustToFactValue.exit.thread ], [ false, %.thread.i ], [ true, %57 ], [ %72, %.loopexit.sink.split.i ], [ true, %.lr.ph.i ]
  ret i1 %.0
}